target datalayout = "e-m:e-p270:32:32-p271:32:32-p272:64:64-i64:64-i128:128-f80:128-n8:16:32:64-S128"
target triple = "x86_64-unknown-linux-gnu"

%"class.cvc5::internal::rewriter::RewriteDbProofCons" = type { %"class.cvc5::internal::EnvObj", %"class.cvc5::internal::rewriter::BasicRewriteRCons", ptr }
%"class.cvc5::internal::EnvObj" = type { ptr, ptr }
%"class.cvc5::internal::rewriter::BasicRewriteRCons" = type { %"class.cvc5::internal::EnvObj" }

; Function Attrs: mustprogress nounwind uwtable
define linkonce_odr hidden void @_ZN4cvc58internal6EnvObjD2Ev(ptr noundef nonnull align 8 dereferenceable(16) %this) unnamed_addr #5 comdat align 2 {
entry:
  %this.addr = alloca ptr, align 8
  store ptr %this, ptr %this.addr, align 8
  ret void
}

; Function Attrs: mustprogress uwtable
define hidden void @_ZN4cvc58internal8rewriter18RewriteDbProofConsC2ERNS0_3EnvEPNS1_9RewriteDbE(ptr noundef nonnull align 8 dereferenceable(40) %this, ptr noundef nonnull align 1 %env, ptr noundef %db) unnamed_addr #4 align 2 personality ptr @__gxx_personality_v0 {
entry:
  %this.addr = alloca ptr, align 8
  %env.addr = alloca ptr, align 8
  %db.addr = alloca ptr, align 8
  %exn.slot = alloca ptr, align 8
  %ehselector.slot = alloca i32, align 4
  store ptr %this, ptr %this.addr, align 8
  store ptr %env, ptr %env.addr, align 8
  store ptr %db, ptr %db.addr, align 8
  %this1 = load ptr, ptr %this.addr, align 8
  %0 = load ptr, ptr %env.addr, align 8
  call void @_ZN4cvc58internal6EnvObjC2ERNS0_3EnvE(ptr noundef nonnull align 8 dereferenceable(16) %this1, ptr noundef nonnull align 1 %0)
  store ptr getelementptr inbounds ({ [4 x ptr] }, ptr @_ZTVN4cvc58internal8rewriter18RewriteDbProofConsE, i32 0, i32 0, i32 2), ptr %this1, align 8
  %d_trrc = getelementptr inbounds %"class.cvc5::internal::rewriter::RewriteDbProofCons", ptr %this1, i32 0, i32 1
  %1 = load ptr, ptr %env.addr, align 8
  invoke void @_ZN4cvc58internal8rewriter17BasicRewriteRConsC1ERNS0_3EnvE(ptr noundef nonnull align 8 dereferenceable(16) %d_trrc, ptr noundef nonnull align 1 %1)
          to label %invoke.cont unwind label %lpad

invoke.cont:                                      ; preds = %entry
  %d_db = getelementptr inbounds %"class.cvc5::internal::rewriter::RewriteDbProofCons", ptr %this1, i32 0, i32 2
  %2 = load ptr, ptr %db.addr, align 8
  store ptr %2, ptr %d_db, align 8
  ret void

lpad:                                             ; preds = %entry
  %3 = landingpad { ptr, i32 }
          cleanup
  %4 = extractvalue { ptr, i32 } %3, 0
  store ptr %4, ptr %exn.slot, align 8
  %5 = extractvalue { ptr, i32 } %3, 1
  store i32 %5, ptr %ehselector.slot, align 4
  call void @_ZN4cvc58internal6EnvObjD2Ev(ptr noundef nonnull align 8 dereferenceable(16) %this1) #3
  br label %eh.resume

eh.resume:                                        ; preds = %lpad
  %exn = load ptr, ptr %exn.slot, align 8
  %sel = load i32, ptr %ehselector.slot, align 4
  %lpad.val = insertvalue { ptr, i32 } poison, ptr %exn, 0
  %lpad.val2 = insertvalue { ptr, i32 } %lpad.val, i32 %sel, 1
  resume { ptr, i32 } %lpad.val2
}