; Function Attrs: mustprogress uwtable
define hidden void @_ZN4cvc58internal8rewriter18RewriteDbProofConsC2ERNS0_3EnvEPNS1_9RewriteDbE(ptr noundef nonnull align 8 dereferenceable(40) %this, ptr noundef nonnull align 1 %env, ptr noundef %db) unnamed_addr #3 align 2 personality ptr @__gxx_personality_v0 {
entry:
  tail call void @_ZN4cvc58internal6EnvObjC2ERNS0_3EnvE(ptr noundef nonnull align 8 dereferenceable(16) %this, ptr noundef nonnull align 1 %env)
  store ptr getelementptr inbounds ({ [4 x ptr] }, ptr @_ZTVN4cvc58internal8rewriter18RewriteDbProofConsE, i64 0, i32 0, i64 2), ptr %this, align 8
  %d_trrc = getelementptr inbounds i8, ptr %this, i64 16
  tail call void @_ZN4cvc58internal8rewriter17BasicRewriteRConsC1ERNS0_3EnvE(ptr noundef nonnull align 8 dereferenceable(16) %d_trrc, ptr noundef nonnull align 1 %env)
  %d_db = getelementptr inbounds i8, ptr %this, i64 32
  store ptr %db, ptr %d_db, align 8
  ret void
}